; Function Attrs: mustprogress uwtable
define hidden void @_ZN2cv6detail8tracking15contrib_feature15CvHaarEvaluator16generateFeaturesEi(ptr noundef nonnull align 8 dereferenceable(360) %0, i32 noundef %1) unnamed_addr #5 align 2 personality ptr @__gxx_personality_v0 {
  %3 = alloca %"class.cv::detail::tracking::contrib_feature::CvHaarEvaluator::FeatureHaar", align 8
  %4 = icmp sgt i32 %1, 0
  br i1 %4, label %.lr.ph, label %._crit_edge

.lr.ph:                                           ; preds = %2
  %5 = getelementptr inbounds nuw i8, ptr %0, i64 20
  %6 = getelementptr inbounds nuw i8, ptr %0, i64 248
  %7 = getelementptr inbounds nuw i8, ptr %0, i64 256
  %8 = getelementptr inbounds nuw i8, ptr %0, i64 240
  %9 = getelementptr inbounds nuw i8, ptr %3, i64 112
  %10 = getelementptr inbounds nuw i8, ptr %3, i64 88
  %11 = getelementptr inbounds nuw i8, ptr %3, i64 40
  %12 = getelementptr inbounds nuw i8, ptr %3, i64 8
  br label %13

._crit_edge:                                      ; preds = %_ZN2cv6detail8tracking15contrib_feature15CvHaarEvaluator11FeatureHaarD2Ev.exit, %2
  ret void

13:                                               ; preds = %.lr.ph, %_ZN2cv6detail8tracking15contrib_feature15CvHaarEvaluator11FeatureHaarD2Ev.exit
  %.06 = phi i32 [ 0, %.lr.ph ], [ %29, %_ZN2cv6detail8tracking15contrib_feature15CvHaarEvaluator11FeatureHaarD2Ev.exit ]
  call void @llvm.lifetime.start.p0(i64 136, ptr nonnull %3) #31
  %14 = load i64, ptr %5, align 4
  call void @_ZN2cv6detail8tracking15contrib_feature15CvHaarEvaluator11FeatureHaarC2ENS_5Size_IiEE(ptr noundef nonnull align 8 dereferenceable(136) %3, i64 %14)
  %15 = load ptr, ptr %6, align 8, !tbaa !125
  %16 = load ptr, ptr %7, align 8, !tbaa !136
  %.not.i = icmp eq ptr %15, %16
  br i1 %.not.i, label %20, label %17

17:                                               ; preds = %13
  invoke void @_ZN2cv6detail8tracking15contrib_feature15CvHaarEvaluator11FeatureHaarC2ERKS4_(ptr noundef nonnull align 8 dereferenceable(136) %15, ptr noundef nonnull align 8 dereferenceable(136) %3)
          to label %.noexc unwind label %30

.noexc:                                           ; preds = %17
  %18 = load ptr, ptr %6, align 8, !tbaa !125
  %19 = getelementptr inbounds nuw i8, ptr %18, i64 136
  store ptr %19, ptr %6, align 8, !tbaa !125
  br label %_ZNSt6vectorIN2cv6detail8tracking15contrib_feature15CvHaarEvaluator11FeatureHaarESaIS5_EE9push_backERKS5_.exit

20:                                               ; preds = %13
  invoke void @_ZNSt6vectorIN2cv6detail8tracking15contrib_feature15CvHaarEvaluator11FeatureHaarESaIS5_EE17_M_realloc_insertIJRKS5_EEEvN9__gnu_cxx17__normal_iteratorIPS5_S7_EEDpOT_(ptr noundef nonnull align 8 dereferenceable(24) %8, ptr %15, ptr noundef nonnull align 8 dereferenceable(136) %3)
          to label %_ZNSt6vectorIN2cv6detail8tracking15contrib_feature15CvHaarEvaluator11FeatureHaarESaIS5_EE9push_backERKS5_.exit unwind label %30

_ZNSt6vectorIN2cv6detail8tracking15contrib_feature15CvHaarEvaluator11FeatureHaarESaIS5_EE9push_backERKS5_.exit: ; preds = %.noexc, %20
  %21 = load ptr, ptr %9, align 8, !tbaa !126
  %.not.i.i.i.i = icmp eq ptr %21, null
  br i1 %.not.i.i.i.i, label %_ZNSt6vectorIfSaIfEED2Ev.exit.i, label %22

22:                                               ; preds = %_ZNSt6vectorIN2cv6detail8tracking15contrib_feature15CvHaarEvaluator11FeatureHaarESaIS5_EE9push_backERKS5_.exit
  call void @_ZdlPv(ptr noundef nonnull %21) #30
  br label %_ZNSt6vectorIfSaIfEED2Ev.exit.i

_ZNSt6vectorIfSaIfEED2Ev.exit.i:                  ; preds = %22, %_ZNSt6vectorIN2cv6detail8tracking15contrib_feature15CvHaarEvaluator11FeatureHaarESaIS5_EE9push_backERKS5_.exit
  %23 = load ptr, ptr %10, align 8, !tbaa !129
  %.not.i.i.i1.i = icmp eq ptr %23, null
  br i1 %.not.i.i.i1.i, label %_ZNSt6vectorIN2cv5Rect_IiEESaIS2_EED2Ev.exit.i, label %24

24:                                               ; preds = %_ZNSt6vectorIfSaIfEED2Ev.exit.i
  call void @_ZdlPv(ptr noundef nonnull %23) #30
  br label %_ZNSt6vectorIN2cv5Rect_IiEESaIS2_EED2Ev.exit.i

_ZNSt6vectorIN2cv5Rect_IiEESaIS2_EED2Ev.exit.i:   ; preds = %24, %_ZNSt6vectorIfSaIfEED2Ev.exit.i
  %25 = load ptr, ptr %11, align 8, !tbaa !129
  %.not.i.i.i2.i = icmp eq ptr %25, null
  br i1 %.not.i.i.i2.i, label %_ZNSt6vectorIN2cv5Rect_IiEESaIS2_EED2Ev.exit3.i, label %26

26:                                               ; preds = %_ZNSt6vectorIN2cv5Rect_IiEESaIS2_EED2Ev.exit.i
  call void @_ZdlPv(ptr noundef nonnull %25) #30
  br label %_ZNSt6vectorIN2cv5Rect_IiEESaIS2_EED2Ev.exit3.i

_ZNSt6vectorIN2cv5Rect_IiEESaIS2_EED2Ev.exit3.i:  ; preds = %26, %_ZNSt6vectorIN2cv5Rect_IiEESaIS2_EED2Ev.exit.i
  %27 = load ptr, ptr %12, align 8, !tbaa !126
  %.not.i.i.i4.i = icmp eq ptr %27, null
  br i1 %.not.i.i.i4.i, label %_ZN2cv6detail8tracking15contrib_feature15CvHaarEvaluator11FeatureHaarD2Ev.exit, label %28

28:                                               ; preds = %_ZNSt6vectorIN2cv5Rect_IiEESaIS2_EED2Ev.exit3.i
  call void @_ZdlPv(ptr noundef nonnull %27) #30
  br label %_ZN2cv6detail8tracking15contrib_feature15CvHaarEvaluator11FeatureHaarD2Ev.exit

_ZN2cv6detail8tracking15contrib_feature15CvHaarEvaluator11FeatureHaarD2Ev.exit: ; preds = %_ZNSt6vectorIN2cv5Rect_IiEESaIS2_EED2Ev.exit3.i, %28
  call void @llvm.lifetime.end.p0(i64 136, ptr nonnull %3) #31
  %29 = add nuw nsw i32 %.06, 1
  %exitcond.not = icmp eq i32 %29, %1
  br i1 %exitcond.not, label %._crit_edge, label %13, !llvm.loop !139

30:                                               ; preds = %20, %17
  %31 = landingpad { ptr, i32 }
          cleanup
  call void @_ZN2cv6detail8tracking15contrib_feature15CvHaarEvaluator11FeatureHaarD2Ev(ptr noundef nonnull align 8 dereferenceable(136) %3) #31
  call void @llvm.lifetime.end.p0(i64 136, ptr nonnull %3) #31
  resume { ptr, i32 } %31
}